; Function Attrs: nounwind uwtable
define void @Tru_ManResize(ptr noundef captures(none) %0) local_unnamed_addr #2 {
  %2 = getelementptr inbounds nuw i8, ptr %0, i64 16
  %3 = load ptr, ptr %2, align 8, !tbaa !3
  %4 = getelementptr inbounds nuw i8, ptr %0, i64 12
  %5 = load i32, ptr %4, align 4, !tbaa !13
  %6 = shl nsw i32 %5, 1
  %7 = or disjoint i32 %6, 1
  store i32 %7, ptr %4, align 4, !tbaa !13
  %8 = sext i32 %7 to i64
  %9 = tail call noalias ptr @calloc(i64 noundef %8, i64 noundef 4) #10
  store ptr %9, ptr %2, align 8, !tbaa !3
  %10 = icmp sgt i32 %5, 0
  br i1 %10, label %.lr.ph51, label %._crit_edge52

.lr.ph51:                                         ; preds = %1
  %11 = getelementptr inbounds nuw i8, ptr %0, i64 24
  %12 = getelementptr inbounds nuw i8, ptr %0, i64 4
  %wide.trip.count = zext nneg i32 %5 to i64
  br label %13

13:                                               ; preds = %.lr.ph51, %._crit_edge
  %indvars.iv = phi i64 [ 0, %.lr.ph51 ], [ %indvars.iv.next, %._crit_edge ]
  %14 = getelementptr inbounds nuw i32, ptr %3, i64 %indvars.iv
  %15 = load i32, ptr %14, align 4, !tbaa !16
  %.not.i = icmp eq i32 %15, 0
  br i1 %.not.i, label %._crit_edge, label %Tru_ManReadOne.exit

Tru_ManReadOne.exit:                              ; preds = %13
  %16 = load ptr, ptr %11, align 8, !tbaa !19
  %17 = getelementptr inbounds nuw i8, ptr %16, i64 24
  %18 = load ptr, ptr %17, align 8, !tbaa !20
  %.val.i.i = load i32, ptr %16, align 8, !tbaa !23
  %19 = ashr i32 %15, %.val.i.i
  %20 = sext i32 %19 to i64
  %21 = getelementptr inbounds ptr, ptr %18, i64 %20
  %22 = load ptr, ptr %21, align 8, !tbaa !24
  %.not32 = icmp eq ptr %22, null
  br i1 %.not32, label %._crit_edge, label %.lr.ph

.lr.ph:                                           ; preds = %Tru_ManReadOne.exit, %Tru_ManReadOne.exit38
  %.sink69 = phi ptr [ %71, %Tru_ManReadOne.exit38 ], [ %16, %Tru_ManReadOne.exit ]
  %.02746.sink = phi i32 [ %.02746, %Tru_ManReadOne.exit38 ], [ %15, %Tru_ManReadOne.exit ]
  %.sink = phi ptr [ %77, %Tru_ManReadOne.exit38 ], [ %22, %Tru_ManReadOne.exit ]
  %23 = getelementptr i8, ptr %.sink69, i64 4
  %.val4.i.i37 = load i32, ptr %23, align 4, !tbaa !25
  %24 = and i32 %.val4.i.i37, %.02746.sink
  %25 = sext i32 %24 to i64
  %26 = getelementptr inbounds i64, ptr %.sink, i64 %25
  %.02746.in = getelementptr inbounds nuw i8, ptr %26, i64 4
  %.02746 = load i32, ptr %.02746.in, align 4, !tbaa !28
  %27 = getelementptr inbounds nuw i8, ptr %26, i64 4
  store i32 0, ptr %27, align 4, !tbaa !28
  %28 = getelementptr inbounds nuw i8, ptr %26, i64 8
  %29 = load i32, ptr %12, align 4, !tbaa !12
  %30 = load i32, ptr %4, align 4, !tbaa !13
  %31 = icmp sgt i32 %29, 0
  br i1 %31, label %.lr.ph.preheader.i.i, label %Tru_ManHash.exit.i

.lr.ph.preheader.i.i:                             ; preds = %.lr.ph
  %wide.trip.count.i.i = zext nneg i32 %29 to i64
  br label %.lr.ph.i.i

.lr.ph.i.i:                                       ; preds = %.lr.ph.i.i, %.lr.ph.preheader.i.i
  %indvars.iv.i.i = phi i64 [ 0, %.lr.ph.preheader.i.i ], [ %indvars.iv.next.i.i, %.lr.ph.i.i ]
  %.02.i.i = phi i32 [ 0, %.lr.ph.preheader.i.i ], [ %39, %.lr.ph.i.i ]
  %32 = getelementptr inbounds nuw i64, ptr %28, i64 %indvars.iv.i.i
  %33 = load i64, ptr %32, align 8, !tbaa !14
  %34 = and i64 %indvars.iv.i.i, 7
  %35 = getelementptr inbounds nuw i32, ptr @Tru_ManLookup.s_Primes, i64 %34
  %36 = load i32, ptr %35, align 4, !tbaa !16
  %37 = trunc i64 %33 to i32
  %38 = mul i32 %36, %37
  %39 = xor i32 %38, %.02.i.i
  %indvars.iv.next.i.i = add nuw nsw i64 %indvars.iv.i.i, 1
  %exitcond.not.i.i = icmp eq i64 %indvars.iv.next.i.i, %wide.trip.count.i.i
  br i1 %exitcond.not.i.i, label %Tru_ManHash.exit.i, label %.lr.ph.i.i, !llvm.loop !17

Tru_ManHash.exit.i:                               ; preds = %.lr.ph.i.i, %.lr.ph
  %.0.lcssa.i.i = phi i32 [ 0, %.lr.ph ], [ %39, %.lr.ph.i.i ]
  %40 = urem i32 %.0.lcssa.i.i, %30
  %41 = zext i32 %40 to i64
  %42 = getelementptr inbounds nuw i32, ptr %9, i64 %41
  %43 = load i32, ptr %42, align 4, !tbaa !16
  %.not.i.i = icmp eq i32 %43, 0
  br i1 %.not.i.i, label %Tru_ManLookup.exit, label %Tru_ManReadOne.exit.i

Tru_ManReadOne.exit.i:                            ; preds = %Tru_ManHash.exit.i
  %44 = load ptr, ptr %11, align 8, !tbaa !19
  %45 = getelementptr inbounds nuw i8, ptr %44, i64 24
  %46 = load ptr, ptr %45, align 8, !tbaa !20
  %.val.i.i.i = load i32, ptr %44, align 8, !tbaa !23
  %47 = ashr i32 %43, %.val.i.i.i
  %48 = sext i32 %47 to i64
  %49 = getelementptr inbounds ptr, ptr %46, i64 %48
  %50 = load ptr, ptr %49, align 8, !tbaa !24
  %.not35.i = icmp eq ptr %50, null
  br i1 %.not35.i, label %Tru_ManLookup.exit, label %.lr.ph.i

.lr.ph.i:                                         ; preds = %Tru_ManReadOne.exit.i
  %51 = getelementptr i8, ptr %44, i64 4
  %.val4.i.i.i = load i32, ptr %51, align 4, !tbaa !25
  %wide.trip.count.i20.i = zext nneg i32 %29 to i64
  br i1 %31, label %.lr.ph.preheader.i19.us.i.preheader, label %Tru_ManLookup.exit

.lr.ph.preheader.i19.us.i.preheader:              ; preds = %.lr.ph.i
  %52 = and i32 %.val4.i.i.i, %43
  %53 = sext i32 %52 to i64
  %54 = getelementptr inbounds i64, ptr %50, i64 %53
  br label %.lr.ph.preheader.i19.us.i

.lr.ph.preheader.i19.us.i:                        ; preds = %.lr.ph.preheader.i19.us.i.preheader, %Tru_ManReadOne.exit29.us.i
  %.037.us.i = phi ptr [ %60, %Tru_ManReadOne.exit29.us.i ], [ %42, %.lr.ph.preheader.i19.us.i.preheader ]
  %.01636.us.i = phi ptr [ %68, %Tru_ManReadOne.exit29.us.i ], [ %54, %.lr.ph.preheader.i19.us.i.preheader ]
  %55 = getelementptr inbounds nuw i8, ptr %.01636.us.i, i64 8
  br label %.lr.ph.i21.us.i

.lr.ph.i21.us.i:                                  ; preds = %69, %.lr.ph.preheader.i19.us.i
  %indvars.iv.i22.us.i = phi i64 [ 0, %.lr.ph.preheader.i19.us.i ], [ %indvars.iv.next.i24.us.i, %69 ]
  %56 = getelementptr inbounds nuw i64, ptr %55, i64 %indvars.iv.i22.us.i
  %57 = load i64, ptr %56, align 8, !tbaa !14
  %58 = getelementptr inbounds nuw i64, ptr %28, i64 %indvars.iv.i22.us.i
  %59 = load i64, ptr %58, align 8, !tbaa !14
  %.not.i23.us.i = icmp eq i64 %57, %59
  br i1 %.not.i23.us.i, label %69, label %Tru_ManEqual.exit.us.i

Tru_ManEqual.exit.us.i:                           ; preds = %.lr.ph.i21.us.i
  %60 = getelementptr inbounds nuw i8, ptr %.01636.us.i, i64 4
  %61 = load i32, ptr %60, align 4, !tbaa !16
  %.not.i26.us.i = icmp eq i32 %61, 0
  br i1 %.not.i26.us.i, label %Tru_ManLookup.exit, label %Tru_ManReadOne.exit29.us.i

Tru_ManReadOne.exit29.us.i:                       ; preds = %Tru_ManEqual.exit.us.i
  %62 = ashr i32 %61, %.val.i.i.i
  %63 = sext i32 %62 to i64
  %64 = getelementptr inbounds ptr, ptr %46, i64 %63
  %65 = load ptr, ptr %64, align 8, !tbaa !24
  %66 = and i32 %61, %.val4.i.i.i
  %67 = sext i32 %66 to i64
  %68 = getelementptr inbounds i64, ptr %65, i64 %67
  %.not.us.i = icmp eq ptr %65, null
  br i1 %.not.us.i, label %Tru_ManLookup.exit, label %.lr.ph.preheader.i19.us.i, !llvm.loop !26

69:                                               ; preds = %.lr.ph.i21.us.i
  %indvars.iv.next.i24.us.i = add nuw nsw i64 %indvars.iv.i22.us.i, 1
  %exitcond.not.i25.us.i = icmp eq i64 %indvars.iv.next.i24.us.i, %wide.trip.count.i20.i
  br i1 %exitcond.not.i25.us.i, label %Tru_ManLookup.exit, label %.lr.ph.i21.us.i, !llvm.loop !27

Tru_ManLookup.exit:                               ; preds = %Tru_ManEqual.exit.us.i, %Tru_ManReadOne.exit29.us.i, %69, %Tru_ManHash.exit.i, %Tru_ManReadOne.exit.i, %.lr.ph.i
  %.034.i = phi ptr [ %42, %Tru_ManReadOne.exit.i ], [ %42, %.lr.ph.i ], [ %42, %Tru_ManHash.exit.i ], [ %.037.us.i, %69 ], [ %60, %Tru_ManReadOne.exit29.us.i ], [ %60, %Tru_ManEqual.exit.us.i ]
  %70 = load i32, ptr %26, align 8, !tbaa !30
  store i32 %70, ptr %.034.i, align 4, !tbaa !16
  %.not.i35 = icmp eq i32 %.02746, 0
  br i1 %.not.i35, label %._crit_edge, label %Tru_ManReadOne.exit38

Tru_ManReadOne.exit38:                            ; preds = %Tru_ManLookup.exit
  %71 = load ptr, ptr %11, align 8, !tbaa !19
  %72 = getelementptr inbounds nuw i8, ptr %71, i64 24
  %73 = load ptr, ptr %72, align 8, !tbaa !20
  %.val.i.i36 = load i32, ptr %71, align 8, !tbaa !23
  %74 = ashr i32 %.02746, %.val.i.i36
  %75 = sext i32 %74 to i64
  %76 = getelementptr inbounds ptr, ptr %73, i64 %75
  %77 = load ptr, ptr %76, align 8, !tbaa !24
  %.not34 = icmp eq ptr %77, null
  br i1 %.not34, label %._crit_edge, label %.lr.ph, !llvm.loop !31

._crit_edge:                                      ; preds = %Tru_ManLookup.exit, %Tru_ManReadOne.exit38, %13, %Tru_ManReadOne.exit
  %indvars.iv.next = add nuw nsw i64 %indvars.iv, 1
  %exitcond.not = icmp eq i64 %indvars.iv.next, %wide.trip.count
  br i1 %exitcond.not, label %._crit_edge52, label %13, !llvm.loop !32

._crit_edge52:                                    ; preds = %._crit_edge, %1
  %.not = icmp eq ptr %3, null
  br i1 %.not, label %79, label %78

78:                                               ; preds = %._crit_edge52
  tail call void @free(ptr noundef nonnull %3) #11
  br label %79

79:                                               ; preds = %._crit_edge52, %78
  ret void
}